target datalayout = "e-m:e-p270:32:32-p271:32:32-p272:64:64-i64:64-i128:128-f80:128-n8:16:32:64-S128"
target triple = "x86_64-unknown-linux-gnu"

%struct.QTailQLink = type { ptr, ptr }
%struct.CompareState = type { %struct.Object, ptr, ptr, ptr, ptr, %struct.CharBackend, %struct.CharBackend, %struct.CharBackend, %struct.CharBackend, %struct.SocketReadState, %struct.SocketReadState, %struct.SocketReadState, %struct.SendCo, %struct.SendCo, i8, i64, i32, %struct._GQueue, ptr, ptr, ptr, ptr, ptr, i32, %union.anon.0 }
%struct.Object = type { ptr, ptr, ptr, i32, ptr }
%struct.CharBackend = type { ptr, ptr, ptr, ptr, ptr, ptr, i32, i32 }
%struct.SocketReadState = type { i32, i8, i32, i32, i32, [69632 x i8], ptr }
%struct.SendCo = type { ptr, ptr, ptr, %struct._GQueue, i8, i8, i32 }
%struct._GQueue = type { ptr, ptr, i32 }
%union.anon.0 = type { %struct.QTailQLink }

@.str = private unnamed_addr constant [27 x i8] c"../qemu/net/colo-compare.c\00", align 1
@.str.1 = private unnamed_addr constant [13 x i8] c"colo-compare\00", align 1
@__func__.COLO_COMPARE = private unnamed_addr constant [13 x i8] c"COLO_COMPARE\00", align 1
@.str.61 = private unnamed_addr constant [30 x i8] c"colo-compare primary_in error\00", align 1

; Function Attrs: nounwind sspstrong uwtable
define internal ptr @COLO_COMPARE(ptr noundef %obj) #0 {
entry:
  %obj.addr = alloca ptr, align 8
  store ptr %obj, ptr %obj.addr, align 8
  %0 = load ptr, ptr %obj.addr, align 8
  %call = call ptr @object_dynamic_cast_assert(ptr noundef %0, ptr noundef @.str.1, ptr noundef @.str, i32 noundef 40, ptr noundef @__func__.COLO_COMPARE)
  ret ptr %call
}

; Function Attrs: nounwind sspstrong uwtable
define internal void @compare_pri_chr_in(ptr noundef %opaque, ptr noundef %buf, i32 noundef %size) #0 {
entry:
  %opaque.addr = alloca ptr, align 8
  %buf.addr = alloca ptr, align 8
  %size.addr = alloca i32, align 4
  %s = alloca ptr, align 8
  %ret = alloca i32, align 4
  store ptr %opaque, ptr %opaque.addr, align 8
  store ptr %buf, ptr %buf.addr, align 8
  store i32 %size, ptr %size.addr, align 4
  %0 = load ptr, ptr %opaque.addr, align 8
  %call = call ptr @COLO_COMPARE(ptr noundef %0)
  store ptr %call, ptr %s, align 8
  %1 = load ptr, ptr %s, align 8
  %pri_rs = getelementptr inbounds %struct.CompareState, ptr %1, i32 0, i32 9
  %2 = load ptr, ptr %buf.addr, align 8
  %3 = load i32, ptr %size.addr, align 4
  %call1 = call i32 @net_fill_rstate(ptr noundef %pri_rs, ptr noundef %2, i32 noundef %3)
  store i32 %call1, ptr %ret, align 4
  %4 = load i32, ptr %ret, align 4
  %cmp = icmp eq i32 %4, -1
  br i1 %cmp, label %if.then, label %if.end

if.then:                                          ; preds = %entry
  %5 = load ptr, ptr %s, align 8
  %chr_pri_in = getelementptr inbounds %struct.CompareState, ptr %5, i32 0, i32 5
  call void @qemu_chr_fe_set_handlers(ptr noundef %chr_pri_in, ptr noundef null, ptr noundef null, ptr noundef null, ptr noundef null, ptr noundef null, ptr noundef null, i1 noundef zeroext true)
  call void (ptr, ...) @error_report(ptr noundef @.str.61)
  br label %if.end

if.end:                                           ; preds = %if.then, %entry
  ret void
}