; Function Attrs: nounwind sspstrong uwtable
define internal void @compare_pri_chr_in(ptr noundef %opaque, ptr noundef %buf, i32 noundef %size) #0 {
entry:
  %call.i = tail call ptr @object_dynamic_cast_assert(ptr noundef %opaque, ptr noundef nonnull @.str.1, ptr noundef nonnull @.str, i32 noundef 40, ptr noundef nonnull @__func__.COLO_COMPARE) #16
  %pri_rs = getelementptr inbounds nuw i8, ptr %call.i, i64 296
  %call1 = tail call i32 @net_fill_rstate(ptr noundef nonnull %pri_rs, ptr noundef %buf, i32 noundef %size) #16
  %cmp = icmp eq i32 %call1, -1
  br i1 %cmp, label %if.then, label %if.end

if.then:                                          ; preds = %entry
  %chr_pri_in = getelementptr inbounds nuw i8, ptr %call.i, i64 72
  tail call void @qemu_chr_fe_set_handlers(ptr noundef nonnull %chr_pri_in, ptr noundef null, ptr noundef null, ptr noundef null, ptr noundef null, ptr noundef null, ptr noundef null, i1 noundef zeroext true) #16
  tail call void (ptr, ...) @error_report(ptr noundef nonnull @.str.61) #16
  br label %if.end

if.end:                                           ; preds = %if.then, %entry
  ret void
}